; Function Attrs: nounwind uwtable
define internal zeroext i1 @contain_placeholder_references_walker(ptr noundef %0, ptr noundef %1) #0 {
  %3 = icmp eq ptr %0, null
  br i1 %3, label %25, label %4

4:                                                ; preds = %2
  %5 = load i32, ptr %0, align 4
  switch i32 %5, label %.thread [
    i32 318, label %6
    i32 67, label %17
  ]

6:                                                ; preds = %4
  %7 = getelementptr inbounds nuw i8, ptr %0, i64 36
  %8 = load i32, ptr %7, align 4
  %9 = getelementptr inbounds nuw i8, ptr %1, i64 4
  %10 = load i32, ptr %9, align 4
  %11 = icmp eq i32 %8, %10
  br i1 %11, label %12, label %.thread

12:                                               ; preds = %6
  %13 = load i32, ptr %1, align 4
  %14 = getelementptr inbounds nuw i8, ptr %0, i64 16
  %15 = load ptr, ptr %14, align 8
  %16 = tail call zeroext i1 @bms_is_member(i32 noundef %13, ptr noundef %15) #5
  br label %25

17:                                               ; preds = %4
  %18 = getelementptr inbounds nuw i8, ptr %1, i64 4
  %19 = load i32, ptr %18, align 4
  %20 = add i32 %19, 1
  store i32 %20, ptr %18, align 4
  %21 = tail call zeroext i1 @query_tree_walker_impl(ptr noundef nonnull %0, ptr noundef nonnull @contain_placeholder_references_walker, ptr noundef %1, i32 noundef 0) #5
  %22 = load i32, ptr %18, align 4
  %23 = add i32 %22, -1
  store i32 %23, ptr %18, align 4
  br label %25

.thread:                                          ; preds = %6, %4
  %24 = tail call zeroext i1 @expression_tree_walker_impl(ptr noundef nonnull %0, ptr noundef nonnull @contain_placeholder_references_walker, ptr noundef %1) #5
  br label %25

25:                                               ; preds = %12, %2, %.thread, %17
  %.0 = phi i1 [ %16, %12 ], [ %24, %.thread ], [ %21, %17 ], [ false, %2 ]
  ret i1 %.0
}